target datalayout = "e-m:e-p270:32:32-p271:32:32-p272:64:64-i64:64-i128:128-f80:128-n8:16:32:64-S128"
target triple = "x86_64-pc-linux-gnu"

@.str.16 = private unnamed_addr constant [3 x i8] c"<=\00", align 1
@.str.46 = private unnamed_addr constant [7 x i8] c"BIGNUM\00", align 1

; Function Attrs: nounwind uwtable
define i32 @test_BN_le(ptr noundef %0, i32 noundef %1, ptr noundef %2, ptr noundef %3, ptr noundef %4, ptr noundef %5) #0 {
  %7 = alloca i32, align 4
  %8 = alloca ptr, align 8
  %9 = alloca i32, align 4
  %10 = alloca ptr, align 8
  %11 = alloca ptr, align 8
  %12 = alloca ptr, align 8
  %13 = alloca ptr, align 8
  store ptr %0, ptr %8, align 8, !tbaa !3
  store i32 %1, ptr %9, align 4, !tbaa !8
  store ptr %2, ptr %10, align 8, !tbaa !3
  store ptr %3, ptr %11, align 8, !tbaa !3
  store ptr %4, ptr %12, align 8, !tbaa !18
  store ptr %5, ptr %13, align 8, !tbaa !18
  %14 = load ptr, ptr %12, align 8, !tbaa !18
  %15 = load ptr, ptr %13, align 8, !tbaa !18
  %16 = call i32 @BN_cmp(ptr noundef %14, ptr noundef %15)
  %17 = icmp sle i32 %16, 0
  br i1 %17, label %18, label %19

18:                                               ; preds = %6
  store i32 1, ptr %7, align 4
  br label %26

19:                                               ; preds = %6
  %20 = load ptr, ptr %8, align 8, !tbaa !3
  %21 = load i32, ptr %9, align 4, !tbaa !8
  %22 = load ptr, ptr %10, align 8, !tbaa !3
  %23 = load ptr, ptr %11, align 8, !tbaa !3
  %24 = load ptr, ptr %12, align 8, !tbaa !18
  %25 = load ptr, ptr %13, align 8, !tbaa !18
  call void @test_fail_bignum_message(ptr noundef null, ptr noundef %20, i32 noundef %21, ptr noundef @.str.46, ptr noundef %22, ptr noundef %23, ptr noundef @.str.16, ptr noundef %24, ptr noundef %25)
  store i32 0, ptr %7, align 4
  br label %26

26:                                               ; preds = %19, %18
  %27 = load i32, ptr %7, align 4
  ret i32 %27
}